; Function Attrs: mustprogress uwtable
define ptr @u_fgetcodepage_77(ptr noundef readonly captures(none) %0) local_unnamed_addr #0 {
  %2 = alloca i32, align 4
  call void @llvm.lifetime.start.p0(i64 4, ptr nonnull %2) #9
  store i32 0, ptr %2, align 4, !tbaa !3
  %3 = getelementptr inbounds nuw i8, ptr %0, i64 16
  %4 = load ptr, ptr %3, align 8, !tbaa !22
  %.not = icmp eq ptr %4, null
  br i1 %.not, label %9, label %5

5:                                                ; preds = %1
  %6 = call ptr @ucnv_getName_77(ptr noundef nonnull %4, ptr noundef nonnull %2)
  %7 = load i32, ptr %2, align 4, !tbaa !3
  %8 = icmp slt i32 %7, 1
  %spec.select = select i1 %8, ptr %6, ptr null
  br label %9

9:                                                ; preds = %5, %1
  %.04 = phi ptr [ null, %1 ], [ %spec.select, %5 ]
  call void @llvm.lifetime.end.p0(i64 4, ptr nonnull %2) #9
  ret ptr %.04
}